target datalayout = "e-m:e-p270:32:32-p271:32:32-p272:64:64-i64:64-i128:128-f80:128-n8:16:32:64-S128"
target triple = "x86_64-unknown-linux-gnu"

%class.vector.12 = type { ptr }
%"class.std::__cxx11::basic_string" = type { %"struct.std::__cxx11::basic_string<char>::_Alloc_hider", i64, %union.anon }
%"struct.std::__cxx11::basic_string<char>::_Alloc_hider" = type { ptr }
%union.anon = type { i64, [8 x i8] }
%"class.std::allocator.333" = type { i8 }
%class.default_exception = type { %class.z3_exception, %"class.std::__cxx11::basic_string" }
%class.z3_exception = type { ptr }

@.str = private unnamed_addr constant [43 x i8] c"Overflow encountered when expanding vector\00", align 1
@_ZTI17default_exception = external constant ptr
@_ZTV17default_exception = external unnamed_addr constant { [6 x ptr] }, align 8
@_ZTV12z3_exception = external unnamed_addr constant { [6 x ptr] }, align 8

; Function Attrs: mustprogress nounwind uwtable
define linkonce_odr hidden void @_ZN12z3_exceptionC2Ev(ptr noundef nonnull align 8 dereferenceable(8) %this) unnamed_addr #4 comdat align 2 {
entry:
  %this.addr = alloca ptr, align 8
  store ptr %this, ptr %this.addr, align 8
  %this1 = load ptr, ptr %this.addr, align 8
  store ptr getelementptr inbounds ({ [6 x ptr] }, ptr @_ZTV12z3_exception, i32 0, i32 0, i32 2), ptr %this1, align 8
  ret void
}

; Function Attrs: mustprogress nounwind uwtable
define linkonce_odr hidden void @_ZN17default_exceptionC2EONSt7__cxx1112basic_stringIcSt11char_traitsIcESaIcEEE(ptr noundef nonnull align 8 dereferenceable(40) %this, ptr noundef nonnull align 8 dereferenceable(32) %msg) unnamed_addr #4 comdat align 2 {
entry:
  %this.addr = alloca ptr, align 8
  %msg.addr = alloca ptr, align 8
  store ptr %this, ptr %this.addr, align 8
  store ptr %msg, ptr %msg.addr, align 8
  %this1 = load ptr, ptr %this.addr, align 8
  call void @_ZN12z3_exceptionC2Ev(ptr noundef nonnull align 8 dereferenceable(8) %this1) #3
  store ptr getelementptr inbounds ({ [6 x ptr] }, ptr @_ZTV17default_exception, i32 0, i32 0, i32 2), ptr %this1, align 8
  %m_msg = getelementptr inbounds %class.default_exception, ptr %this1, i32 0, i32 1
  %0 = load ptr, ptr %msg.addr, align 8
  call void @_ZNSt7__cxx1112basic_stringIcSt11char_traitsIcESaIcEEC1EOS4_(ptr noundef nonnull align 8 dereferenceable(32) %m_msg, ptr noundef nonnull align 8 dereferenceable(32) %0) #3
  ret void
}

; Function Attrs: mustprogress uwtable
define internal void @_ZN6vectorIPN12_GLOBAL__N_111instructionELb0EjE13expand_vectorEv(ptr noundef nonnull align 8 dereferenceable(8) %this) #5 align 2 personality ptr @__gxx_personality_v0 {
entry:
  %this.addr = alloca ptr, align 8
  %capacity = alloca i32, align 4
  %mem = alloca ptr, align 8
  %old_capacity = alloca i32, align 4
  %old_capacity_T = alloca i32, align 4
  %new_capacity = alloca i32, align 4
  %new_capacity_T = alloca i32, align 4
  %ref.tmp = alloca %"class.std::__cxx11::basic_string", align 8
  %ref.tmp18 = alloca %"class.std::allocator.333", align 1
  %exn.slot = alloca ptr, align 8
  %ehselector.slot = alloca i32, align 4
  %cleanup.isactive = alloca i1, align 1
  %mem22 = alloca ptr, align 8
  %old_mem = alloca ptr, align 8
  store ptr %this, ptr %this.addr, align 8
  %this1 = load ptr, ptr %this.addr, align 8
  %m_data = getelementptr inbounds %class.vector.12, ptr %this1, i32 0, i32 0
  %0 = load ptr, ptr %m_data, align 8
  %cmp = icmp eq ptr %0, null
  br i1 %cmp, label %if.then, label %if.else

if.then:                                          ; preds = %entry
  store i32 2, ptr %capacity, align 4
  %1 = load i32, ptr %capacity, align 4
  %conv = zext i32 %1 to i64
  %mul = mul i64 8, %conv
  %add = add i64 %mul, 8
  %call = call noalias noundef ptr @_ZN6memory8allocateEm(i64 noundef %add)
  store ptr %call, ptr %mem, align 8
  %2 = load i32, ptr %capacity, align 4
  %3 = load ptr, ptr %mem, align 8
  store i32 %2, ptr %3, align 4
  %4 = load ptr, ptr %mem, align 8
  %incdec.ptr = getelementptr inbounds i32, ptr %4, i32 1
  store ptr %incdec.ptr, ptr %mem, align 8
  %5 = load ptr, ptr %mem, align 8
  store i32 0, ptr %5, align 4
  %6 = load ptr, ptr %mem, align 8
  %incdec.ptr2 = getelementptr inbounds i32, ptr %6, i32 1
  store ptr %incdec.ptr2, ptr %mem, align 8
  %7 = load ptr, ptr %mem, align 8
  %m_data3 = getelementptr inbounds %class.vector.12, ptr %this1, i32 0, i32 0
  store ptr %7, ptr %m_data3, align 8
  br label %if.end28

if.else:                                          ; preds = %entry
  %m_data4 = getelementptr inbounds %class.vector.12, ptr %this1, i32 0, i32 0
  %8 = load ptr, ptr %m_data4, align 8
  %arrayidx = getelementptr inbounds i32, ptr %8, i64 -2
  %9 = load i32, ptr %arrayidx, align 4
  store i32 %9, ptr %old_capacity, align 4
  %10 = load i32, ptr %old_capacity, align 4
  %conv5 = zext i32 %10 to i64
  %mul6 = mul i64 8, %conv5
  %add7 = add i64 %mul6, 8
  %conv8 = trunc i64 %add7 to i32
  store i32 %conv8, ptr %old_capacity_T, align 4
  %11 = load i32, ptr %old_capacity, align 4
  %mul9 = mul i32 3, %11
  %add10 = add i32 %mul9, 1
  %shr = lshr i32 %add10, 1
  store i32 %shr, ptr %new_capacity, align 4
  %12 = load i32, ptr %new_capacity, align 4
  %conv11 = zext i32 %12 to i64
  %mul12 = mul i64 8, %conv11
  %add13 = add i64 %mul12, 8
  %conv14 = trunc i64 %add13 to i32
  store i32 %conv14, ptr %new_capacity_T, align 4
  %13 = load i32, ptr %new_capacity, align 4
  %14 = load i32, ptr %old_capacity, align 4
  %cmp15 = icmp ule i32 %13, %14
  br i1 %cmp15, label %if.then17, label %lor.lhs.false

lor.lhs.false:                                    ; preds = %if.else
  %15 = load i32, ptr %new_capacity_T, align 4
  %16 = load i32, ptr %old_capacity_T, align 4
  %cmp16 = icmp ule i32 %15, %16
  br i1 %cmp16, label %if.then17, label %if.end

if.then17:                                        ; preds = %lor.lhs.false, %if.else
  store i1 true, ptr %cleanup.isactive, align 1
  %exception = call ptr @__cxa_allocate_exception(i64 40) #3
  call void @_ZNSaIcEC1Ev(ptr noundef nonnull align 1 dereferenceable(1) %ref.tmp18) #3
  invoke void @_ZNSt7__cxx1112basic_stringIcSt11char_traitsIcESaIcEEC2IS3_EEPKcRKS3_(ptr noundef nonnull align 8 dereferenceable(32) %ref.tmp, ptr noundef @.str, ptr noundef nonnull align 1 dereferenceable(1) %ref.tmp18)
          to label %invoke.cont unwind label %lpad

invoke.cont:                                      ; preds = %if.then17
  invoke void @_ZN17default_exceptionC2EONSt7__cxx1112basic_stringIcSt11char_traitsIcESaIcEEE(ptr noundef nonnull align 8 dereferenceable(40) %exception, ptr noundef nonnull align 8 dereferenceable(32) %ref.tmp)
          to label %invoke.cont20 unwind label %lpad19

invoke.cont20:                                    ; preds = %invoke.cont
  store i1 false, ptr %cleanup.isactive, align 1
  invoke void @__cxa_throw(ptr %exception, ptr @_ZTI17default_exception, ptr @_ZN17default_exceptionD2Ev) #16
          to label %unreachable unwind label %lpad19

lpad:                                             ; preds = %if.then17
  %17 = landingpad { ptr, i32 }
          cleanup
  %18 = extractvalue { ptr, i32 } %17, 0
  store ptr %18, ptr %exn.slot, align 8
  %19 = extractvalue { ptr, i32 } %17, 1
  store i32 %19, ptr %ehselector.slot, align 4
  br label %ehcleanup

lpad19:                                           ; preds = %invoke.cont20, %invoke.cont
  %20 = landingpad { ptr, i32 }
          cleanup
  %21 = extractvalue { ptr, i32 } %20, 0
  store ptr %21, ptr %exn.slot, align 8
  %22 = extractvalue { ptr, i32 } %20, 1
  store i32 %22, ptr %ehselector.slot, align 4
  call void @_ZNSt7__cxx1112basic_stringIcSt11char_traitsIcESaIcEED1Ev(ptr noundef nonnull align 8 dereferenceable(32) %ref.tmp) #3
  br label %ehcleanup

ehcleanup:                                        ; preds = %lpad19, %lpad
  call void @_ZNSaIcED1Ev(ptr noundef nonnull align 1 dereferenceable(1) %ref.tmp18) #3
  %cleanup.is_active = load i1, ptr %cleanup.isactive, align 1
  br i1 %cleanup.is_active, label %cleanup.action, label %cleanup.done

cleanup.action:                                   ; preds = %ehcleanup
  call void @__cxa_free_exception(ptr %exception) #3
  br label %cleanup.done

cleanup.done:                                     ; preds = %cleanup.action, %ehcleanup
  br label %eh.resume

if.end:                                           ; preds = %lor.lhs.false
  %m_data23 = getelementptr inbounds %class.vector.12, ptr %this1, i32 0, i32 0
  %23 = load ptr, ptr %m_data23, align 8
  %add.ptr = getelementptr inbounds i32, ptr %23, i64 -2
  store ptr %add.ptr, ptr %old_mem, align 8
  %24 = load ptr, ptr %old_mem, align 8
  %25 = load i32, ptr %new_capacity_T, align 4
  %conv24 = zext i32 %25 to i64
  %call25 = call noalias noundef ptr @_ZN6memory10reallocateEPvm(ptr noundef %24, i64 noundef %conv24)
  store ptr %call25, ptr %mem22, align 8
  %26 = load ptr, ptr %mem22, align 8
  %add.ptr26 = getelementptr inbounds i32, ptr %26, i64 2
  %m_data27 = getelementptr inbounds %class.vector.12, ptr %this1, i32 0, i32 0
  store ptr %add.ptr26, ptr %m_data27, align 8
  %27 = load i32, ptr %new_capacity, align 4
  %28 = load ptr, ptr %mem22, align 8
  store i32 %27, ptr %28, align 4
  br label %if.end28

if.end28:                                         ; preds = %if.end, %if.then
  ret void

eh.resume:                                        ; preds = %cleanup.done
  %exn = load ptr, ptr %exn.slot, align 8
  %sel = load i32, ptr %ehselector.slot, align 4
  %lpad.val = insertvalue { ptr, i32 } poison, ptr %exn, 0
  %lpad.val29 = insertvalue { ptr, i32 } %lpad.val, i32 %sel, 1
  resume { ptr, i32 } %lpad.val29

unreachable:                                      ; preds = %invoke.cont20
  unreachable
}